; Function Attrs: nounwind uwtable
define internal range(i32 -1, 1) i32 @graph_read_generation_data(ptr noundef %0, i64 noundef %1, ptr noundef captures(none) %2) #0 {
  %4 = lshr i64 %1, 2
  %5 = getelementptr inbounds nuw i8, ptr %2, i64 20
  %6 = load i32, ptr %5, align 4, !tbaa !97
  %7 = zext i32 %6 to i64
  %.not = icmp eq i64 %4, %7
  br i1 %.not, label %13, label %8

8:                                                ; preds = %3
  %9 = load i32, ptr @git_gettext_enabled, align 4, !tbaa !47
  %.not4.i = icmp eq i32 %9, 0
  br i1 %.not4.i, label %_.exit, label %10

10:                                               ; preds = %8
  %11 = tail call ptr @dcgettext(ptr noundef null, ptr noundef nonnull @.str.36, i32 noundef 5) #24
  br label %_.exit

_.exit:                                           ; preds = %8, %10
  %.0.i = phi ptr [ %11, %10 ], [ @.str.36, %8 ]
  %12 = tail call i32 (ptr, ...) @error(ptr noundef %.0.i) #24
  br label %15

13:                                               ; preds = %3
  %14 = getelementptr inbounds nuw i8, ptr %2, i64 120
  store ptr %0, ptr %14, align 8, !tbaa !86
  br label %15

15:                                               ; preds = %13, %_.exit
  %.0 = phi i32 [ -1, %_.exit ], [ 0, %13 ]
  ret i32 %.0
}